; Function Attrs: mustprogress uwtable
define hidden void @_ZN2lp10hnf_cutter8create_bERK7svectorIjjE(ptr noalias sret(%class.vector.4) align 8 %agg.result, ptr nocapture noundef nonnull readonly align 8 dereferenceable(208) %this, ptr nocapture noundef nonnull readonly align 8 dereferenceable(8) %basis_rows) local_unnamed_addr #3 align 2 personality ptr @__gxx_personality_v0 {
entry:
  %0 = load ptr, ptr %basis_rows, align 8
  %cmp.i = icmp eq ptr %0, null
  br i1 %cmp.i, label %_ZNK6vectorIjLb0EjE4sizeEv.exit.thread, label %_ZNK6vectorIjLb0EjE4sizeEv.exit

_ZNK6vectorIjLb0EjE4sizeEv.exit:                  ; preds = %entry
  %arrayidx.i = getelementptr inbounds i8, ptr %0, i64 -4
  %1 = load i32, ptr %arrayidx.i, align 4
  %m_right_sides = getelementptr inbounds i8, ptr %this, i64 88
  %2 = load ptr, ptr %m_right_sides, align 8
  %cmp.i5 = icmp eq ptr %2, null
  br i1 %cmp.i5, label %_ZNK6vectorI8rationalLb1EjE4sizeEv.exit, label %_ZNK6vectorI8rationalLb1EjE4sizeEv.exit.thread.thread

_ZNK6vectorIjLb0EjE4sizeEv.exit.thread:           ; preds = %entry
  %m_right_sides14 = getelementptr inbounds i8, ptr %this, i64 88
  %3 = load ptr, ptr %m_right_sides14, align 8
  %cmp.i515 = icmp eq ptr %3, null
  br i1 %cmp.i515, label %if.then, label %_ZNK6vectorI8rationalLb1EjE4sizeEv.exit.thread

_ZNK6vectorI8rationalLb1EjE4sizeEv.exit:          ; preds = %_ZNK6vectorIjLb0EjE4sizeEv.exit
  %cmp = icmp eq i32 %1, 0
  br i1 %cmp, label %if.then, label %_ZNK6vectorIjLb0EjE3endEv.exit

_ZNK6vectorI8rationalLb1EjE4sizeEv.exit.thread:   ; preds = %_ZNK6vectorIjLb0EjE4sizeEv.exit.thread
  %arrayidx.i7 = getelementptr inbounds i8, ptr %3, i64 -4
  %4 = load i32, ptr %arrayidx.i7, align 4
  %cmp12 = icmp eq i32 %4, 0
  br i1 %cmp12, label %_ZNK6vectorI8rationalLb1EjE8capacityEv.exit.i.i, label %_ZNK6vectorIjLb0EjE3endEv.exit.thread

_ZNK6vectorI8rationalLb1EjE4sizeEv.exit.thread.thread: ; preds = %_ZNK6vectorIjLb0EjE4sizeEv.exit
  %arrayidx.i732 = getelementptr inbounds i8, ptr %2, i64 -4
  %5 = load i32, ptr %arrayidx.i732, align 4
  %cmp1233 = icmp eq i32 %1, %5
  br i1 %cmp1233, label %_ZNK6vectorI8rationalLb1EjE8capacityEv.exit.i.i, label %_ZNK6vectorIjLb0EjE3endEv.exit

if.then:                                          ; preds = %_ZNK6vectorIjLb0EjE4sizeEv.exit.thread, %_ZNK6vectorI8rationalLb1EjE4sizeEv.exit
  store ptr null, ptr %agg.result, align 8
  br label %return

_ZNK6vectorI8rationalLb1EjE8capacityEv.exit.i.i:  ; preds = %_ZNK6vectorI8rationalLb1EjE4sizeEv.exit.thread.thread, %_ZNK6vectorI8rationalLb1EjE4sizeEv.exit.thread
  %retval.0.i1735 = phi i32 [ %1, %_ZNK6vectorI8rationalLb1EjE4sizeEv.exit.thread.thread ], [ 0, %_ZNK6vectorI8rationalLb1EjE4sizeEv.exit.thread ]
  %m_right_sides1834 = phi ptr [ %m_right_sides, %_ZNK6vectorI8rationalLb1EjE4sizeEv.exit.thread.thread ], [ %m_right_sides14, %_ZNK6vectorI8rationalLb1EjE4sizeEv.exit.thread ]
  %6 = phi ptr [ %2, %_ZNK6vectorI8rationalLb1EjE4sizeEv.exit.thread.thread ], [ %3, %_ZNK6vectorI8rationalLb1EjE4sizeEv.exit.thread ]
  store ptr null, ptr %agg.result, align 8
  %arrayidx.i11.i.i = getelementptr inbounds i8, ptr %6, i64 -8
  %7 = load i32, ptr %arrayidx.i11.i.i, align 4
  %conv.i.i = zext i32 %7 to i64
  %mul.i.i = shl nuw nsw i64 %conv.i.i, 5
  %add.i.i = or disjoint i64 %mul.i.i, 8
  %call3.i.i = tail call noalias noundef ptr @_ZN6memory8allocateEm(i64 noundef %add.i.i)
  store i32 %7, ptr %call3.i.i, align 4
  %incdec.ptr.i.i = getelementptr inbounds i8, ptr %call3.i.i, i64 4
  store i32 %retval.0.i1735, ptr %incdec.ptr.i.i, align 4
  %incdec.ptr4.i.i = getelementptr inbounds i8, ptr %call3.i.i, i64 8
  store ptr %incdec.ptr4.i.i, ptr %agg.result, align 8
  %8 = load ptr, ptr %m_right_sides1834, align 8
  %cmp.i.i.i.i = icmp eq ptr %8, null
  br i1 %cmp.i.i.i.i, label %_ZN6vectorI8rationalLb1EjE9copy_coreERKS1_.exit.i, label %if.end.i.i.i.i

if.end.i.i.i.i:                                   ; preds = %_ZNK6vectorI8rationalLb1EjE8capacityEv.exit.i.i
  %arrayidx.i.i.i.i = getelementptr inbounds i8, ptr %8, i64 -4
  %9 = load i32, ptr %arrayidx.i.i.i.i, align 4
  %10 = zext i32 %9 to i64
  br label %_ZN6vectorI8rationalLb1EjE9copy_coreERKS1_.exit.i

_ZN6vectorI8rationalLb1EjE9copy_coreERKS1_.exit.i: ; preds = %if.end.i.i.i.i, %_ZNK6vectorI8rationalLb1EjE8capacityEv.exit.i.i
  %retval.0.i.i.i.i = phi i64 [ %10, %if.end.i.i.i.i ], [ 0, %_ZNK6vectorI8rationalLb1EjE8capacityEv.exit.i.i ]
  %add.ptr.i.i.i = getelementptr inbounds %class.rational, ptr %8, i64 %retval.0.i.i.i.i
  %call.i.i.i.i = tail call noundef ptr @_ZSt16__do_uninit_copyIPK8rationalPS0_ET0_T_S5_S4_(ptr noundef %8, ptr noundef %add.ptr.i.i.i, ptr noundef nonnull %incdec.ptr4.i.i)
  br label %return

_ZNK6vectorIjLb0EjE3endEv.exit.thread:            ; preds = %_ZNK6vectorI8rationalLb1EjE4sizeEv.exit.thread
  store ptr null, ptr %agg.result, align 8
  br label %return

_ZNK6vectorIjLb0EjE3endEv.exit:                   ; preds = %_ZNK6vectorI8rationalLb1EjE4sizeEv.exit.thread.thread, %_ZNK6vectorI8rationalLb1EjE4sizeEv.exit
  store ptr null, ptr %agg.result, align 8
  %arrayidx.i.i = getelementptr inbounds i8, ptr %0, i64 -4
  %11 = load i32, ptr %arrayidx.i.i, align 4
  %12 = zext i32 %11 to i64
  %add.ptr.i = getelementptr inbounds i32, ptr %0, i64 %12
  %cmp7.not25 = icmp eq i32 %11, 0
  br i1 %cmp7.not25, label %return, label %for.body

for.body:                                         ; preds = %_ZNK6vectorIjLb0EjE3endEv.exit, %for.inc
  %__begin1.026 = phi ptr [ %incdec.ptr, %for.inc ], [ %0, %_ZNK6vectorIjLb0EjE3endEv.exit ]
  %13 = load i32, ptr %__begin1.026, align 4
  %14 = load ptr, ptr %m_right_sides, align 8
  %idxprom.i = zext i32 %13 to i64
  %arrayidx.i10 = getelementptr inbounds %class.rational, ptr %14, i64 %idxprom.i
  %call12 = invoke noundef nonnull align 8 dereferenceable(8) ptr @_ZN6vectorI8rationalLb1EjE9push_backERKS0_(ptr noundef nonnull align 8 dereferenceable(8) %agg.result, ptr noundef nonnull align 8 dereferenceable(32) %arrayidx.i10)
          to label %for.inc unwind label %lpad

for.inc:                                          ; preds = %for.body
  %incdec.ptr = getelementptr inbounds i8, ptr %__begin1.026, i64 4
  %cmp7.not = icmp eq ptr %incdec.ptr, %add.ptr.i
  br i1 %cmp7.not, label %return, label %for.body

lpad:                                             ; preds = %for.body
  %15 = landingpad { ptr, i32 }
          cleanup
  tail call void @_ZN6vectorI8rationalLb1EjED2Ev(ptr noundef nonnull align 8 dereferenceable(8) %agg.result) #20
  resume { ptr, i32 } %15

return:                                           ; preds = %for.inc, %_ZNK6vectorIjLb0EjE3endEv.exit.thread, %_ZNK6vectorIjLb0EjE3endEv.exit, %_ZN6vectorI8rationalLb1EjE9copy_coreERKS1_.exit.i, %if.then
  ret void
}